target datalayout = "e-m:e-p270:32:32-p271:32:32-p272:64:64-i64:64-i128:128-f80:128-n8:16:32:64-S128"
target triple = "x86_64-unknown-linux-gnu"

%"class.llvh::StringRef" = type { ptr, i64 }
%"class.llvh::SMLoc" = type { ptr }
%"class.llvh::Twine" = type <{ %"union.llvh::Twine::Child", %"union.llvh::Twine::Child", i8, i8, [6 x i8] }>
%"union.llvh::Twine::Child" = type { ptr }
%"class.llvh::ArrayRef" = type { ptr, i64 }
%"class.llvh::ArrayRef.24" = type { ptr, i64 }
%"class.std::__cxx11::basic_string" = type { %"struct.std::__cxx11::basic_string<char>::_Alloc_hider", i64, %union.anon }
%"struct.std::__cxx11::basic_string<char>::_Alloc_hider" = type { ptr }
%union.anon = type { i64, [8 x i8] }
%"class.llvh::FileCheckPattern" = type { %"class.llvh::SMLoc", %"class.llvh::StringRef", %"class.std::__cxx11::basic_string", %"class.std::vector.3", %"class.std::map", i32, i32 }
%"class.std::vector.3" = type { %"struct.std::_Vector_base.4" }
%"struct.std::_Vector_base.4" = type { %"struct.std::_Vector_base<std::pair<llvh::StringRef, unsigned int>, std::allocator<std::pair<llvh::StringRef, unsigned int>>>::_Vector_impl" }
%"struct.std::_Vector_base<std::pair<llvh::StringRef, unsigned int>, std::allocator<std::pair<llvh::StringRef, unsigned int>>>::_Vector_impl" = type { %"struct.std::_Vector_base<std::pair<llvh::StringRef, unsigned int>, std::allocator<std::pair<llvh::StringRef, unsigned int>>>::_Vector_impl_data" }
%"struct.std::_Vector_base<std::pair<llvh::StringRef, unsigned int>, std::allocator<std::pair<llvh::StringRef, unsigned int>>>::_Vector_impl_data" = type { ptr, ptr, ptr }
%"class.std::map" = type { %"class.std::_Rb_tree" }
%"class.std::_Rb_tree" = type { %"struct.std::_Rb_tree<llvh::StringRef, std::pair<const llvh::StringRef, unsigned int>, std::_Select1st<std::pair<const llvh::StringRef, unsigned int>>, std::less<llvh::StringRef>>::_Rb_tree_impl" }
%"struct.std::_Rb_tree<llvh::StringRef, std::pair<const llvh::StringRef, unsigned int>, std::_Select1st<std::pair<const llvh::StringRef, unsigned int>>, std::less<llvh::StringRef>>::_Rb_tree_impl" = type { %"struct.std::_Rb_tree_key_compare", %"struct.std::_Rb_tree_header" }
%"struct.std::_Rb_tree_key_compare" = type { %"struct.std::less" }
%"struct.std::less" = type { i8 }
%"struct.std::_Rb_tree_header" = type { %"struct.std::_Rb_tree_node_base", i64 }
%"struct.std::_Rb_tree_node_base" = type { i32, ptr, ptr, ptr }
%"class.llvh::Regex" = type <{ ptr, i32, [4 x i8] }>
%"class.std::allocator.0" = type { i8 }

@.str.14 = private unnamed_addr constant [16 x i8] c"invalid regex: \00", align 1

; Function Attrs: mustprogress nounwind uwtable
define linkonce_odr void @_ZNSt16allocator_traitsISaIcEE37select_on_container_copy_constructionERKS0_(ptr noalias sret(%"class.std::allocator.0") align 1 %agg.result, ptr noundef nonnull align 1 dereferenceable(1) %__rhs) #0 comdat align 2 {
entry:
  %result.ptr = alloca ptr, align 8
  %__rhs.addr = alloca ptr, align 8
  store ptr %agg.result, ptr %result.ptr, align 8
  store ptr %__rhs, ptr %__rhs.addr, align 8
  %0 = load ptr, ptr %__rhs.addr, align 8
  call void @_ZNSaIcEC1ERKS_(ptr noundef nonnull align 1 dereferenceable(1) %agg.result, ptr noundef nonnull align 1 dereferenceable(1) %0) #13
  ret void
}

; Function Attrs: mustprogress nounwind uwtable
define linkonce_odr void @_ZN9__gnu_cxx14__alloc_traitsISaIcEcE17_S_select_on_copyERKS1_(ptr noalias sret(%"class.std::allocator.0") align 1 %agg.result, ptr noundef nonnull align 1 dereferenceable(1) %__a) #0 comdat align 2 {
entry:
  %result.ptr = alloca ptr, align 8
  %__a.addr = alloca ptr, align 8
  store ptr %agg.result, ptr %result.ptr, align 8
  store ptr %__a, ptr %__a.addr, align 8
  %0 = load ptr, ptr %__a.addr, align 8
  call void @_ZNSt16allocator_traitsISaIcEE37select_on_container_copy_constructionERKS0_(ptr sret(%"class.std::allocator.0") align 1 %agg.result, ptr noundef nonnull align 1 dereferenceable(1) %0)
  ret void
}

; Function Attrs: mustprogress nounwind uwtable
define linkonce_odr noundef i64 @_ZNSt11char_traitsIcE6lengthEPKc(ptr noundef %__s) #0 comdat align 2 {
entry:
  %__s.addr = alloca ptr, align 8
  store ptr %__s, ptr %__s.addr, align 8
  %0 = load ptr, ptr %__s.addr, align 8
  %call = call i64 @strlen(ptr noundef %0) #13
  ret i64 %call
}

; Function Attrs: mustprogress nounwind uwtable
define linkonce_odr hidden void @_ZN4llvh5SMLocC2Ev(ptr noundef nonnull align 8 dereferenceable(8) %this) unnamed_addr #0 comdat align 2 {
entry:
  %this.addr = alloca ptr, align 8
  store ptr %this, ptr %this.addr, align 8
  %this1 = load ptr, ptr %this.addr, align 8
  %Ptr = getelementptr inbounds %"class.llvh::SMLoc", ptr %this1, i32 0, i32 0
  store ptr null, ptr %Ptr, align 8
  ret void
}

; Function Attrs: mustprogress nounwind uwtable
define linkonce_odr hidden void @_ZNK4llvh9StringRef3strB5cxx11Ev(ptr noalias sret(%"class.std::__cxx11::basic_string") align 8 %agg.result, ptr noundef nonnull align 8 dereferenceable(16) %this) #0 comdat align 2 {
entry:
  %result.ptr = alloca ptr, align 8
  %this.addr = alloca ptr, align 8
  %ref.tmp = alloca %"class.std::allocator.0", align 1
  store ptr %agg.result, ptr %result.ptr, align 8
  store ptr %this, ptr %this.addr, align 8
  %this1 = load ptr, ptr %this.addr, align 8
  %Data = getelementptr inbounds %"class.llvh::StringRef", ptr %this1, i32 0, i32 0
  %0 = load ptr, ptr %Data, align 8
  %tobool = icmp ne ptr %0, null
  br i1 %tobool, label %if.end, label %if.then

if.then:                                          ; preds = %entry
  call void @_ZNSt7__cxx1112basic_stringIcSt11char_traitsIcESaIcEEC1Ev(ptr noundef nonnull align 8 dereferenceable(32) %agg.result) #13
  br label %return

if.end:                                           ; preds = %entry
  %Data2 = getelementptr inbounds %"class.llvh::StringRef", ptr %this1, i32 0, i32 0
  %1 = load ptr, ptr %Data2, align 8
  %Length = getelementptr inbounds %"class.llvh::StringRef", ptr %this1, i32 0, i32 1
  %2 = load i64, ptr %Length, align 8
  call void @_ZNSaIcEC1Ev(ptr noundef nonnull align 1 dereferenceable(1) %ref.tmp) #13
  call void @_ZNSt7__cxx1112basic_stringIcSt11char_traitsIcESaIcEEC1EPKcmRKS3_(ptr noundef nonnull align 8 dereferenceable(32) %agg.result, ptr noundef %1, i64 noundef %2, ptr noundef nonnull align 1 dereferenceable(1) %ref.tmp)
  call void @_ZNSaIcED1Ev(ptr noundef nonnull align 1 dereferenceable(1) %ref.tmp) #13
  br label %return

return:                                           ; preds = %if.end, %if.then
  ret void
}

; Function Attrs: mustprogress nounwind uwtable
define linkonce_odr hidden void @_ZN4llvh8ArrayRefINS_7SMFixItEEC2ENS_8NoneTypeE(ptr noundef nonnull align 8 dereferenceable(16) %this, i32 noundef %0) unnamed_addr #0 comdat align 2 {
entry:
  %this.addr = alloca ptr, align 8
  %.addr = alloca i32, align 4
  store ptr %this, ptr %this.addr, align 8
  store i32 %0, ptr %.addr, align 4
  %this1 = load ptr, ptr %this.addr, align 8
  %Data = getelementptr inbounds %"class.llvh::ArrayRef.24", ptr %this1, i32 0, i32 0
  store ptr null, ptr %Data, align 8
  %Length = getelementptr inbounds %"class.llvh::ArrayRef.24", ptr %this1, i32 0, i32 1
  store i64 0, ptr %Length, align 8
  ret void
}

; Function Attrs: mustprogress nounwind uwtable
define linkonce_odr hidden void @_ZN4llvh8ArrayRefINS_7SMRangeEEC2ENS_8NoneTypeE(ptr noundef nonnull align 8 dereferenceable(16) %this, i32 noundef %0) unnamed_addr #0 comdat align 2 {
entry:
  %this.addr = alloca ptr, align 8
  %.addr = alloca i32, align 4
  store ptr %this, ptr %this.addr, align 8
  store i32 %0, ptr %.addr, align 4
  %this1 = load ptr, ptr %this.addr, align 8
  %Data = getelementptr inbounds %"class.llvh::ArrayRef", ptr %this1, i32 0, i32 0
  store ptr null, ptr %Data, align 8
  %Length = getelementptr inbounds %"class.llvh::ArrayRef", ptr %this1, i32 0, i32 1
  store i64 0, ptr %Length, align 8
  ret void
}

; Function Attrs: mustprogress nounwind uwtable
define linkonce_odr hidden void @_ZN4llvh5TwineC2ERKNSt7__cxx1112basic_stringIcSt11char_traitsIcESaIcEEE(ptr noundef nonnull align 8 dereferenceable(18) %this, ptr noundef nonnull align 8 dereferenceable(32) %Str) unnamed_addr #0 comdat align 2 {
entry:
  %this.addr = alloca ptr, align 8
  %Str.addr = alloca ptr, align 8
  store ptr %this, ptr %this.addr, align 8
  store ptr %Str, ptr %Str.addr, align 8
  %this1 = load ptr, ptr %this.addr, align 8
  %LHSKind = getelementptr inbounds %"class.llvh::Twine", ptr %this1, i32 0, i32 2
  store i8 4, ptr %LHSKind, align 8
  %RHSKind = getelementptr inbounds %"class.llvh::Twine", ptr %this1, i32 0, i32 3
  store i8 1, ptr %RHSKind, align 1
  %0 = load ptr, ptr %Str.addr, align 8
  %LHS2 = getelementptr inbounds %"class.llvh::Twine", ptr %this1, i32 0, i32 0
  store ptr %0, ptr %LHS2, align 8
  ret void
}

; Function Attrs: mustprogress nounwind uwtable
define linkonce_odr void @_ZStplIcSt11char_traitsIcESaIcEENSt7__cxx1112basic_stringIT_T0_T1_EEPKS5_RKS8_(ptr noalias sret(%"class.std::__cxx11::basic_string") align 8 %agg.result, ptr noundef %__lhs, ptr noundef nonnull align 8 dereferenceable(32) %__rhs) #0 comdat {
entry:
  %result.ptr = alloca ptr, align 8
  %__lhs.addr = alloca ptr, align 8
  %__rhs.addr = alloca ptr, align 8
  %__len = alloca i64, align 8
  %nrvo = alloca i1, align 1
  %ref.tmp = alloca %"class.std::allocator.0", align 1
  %ref.tmp1 = alloca %"class.std::allocator.0", align 1
  store ptr %agg.result, ptr %result.ptr, align 8
  store ptr %__lhs, ptr %__lhs.addr, align 8
  store ptr %__rhs, ptr %__rhs.addr, align 8
  %0 = load ptr, ptr %__lhs.addr, align 8
  %call = call noundef i64 @_ZNSt11char_traitsIcE6lengthEPKc(ptr noundef %0)
  store i64 %call, ptr %__len, align 8
  store i1 false, ptr %nrvo, align 1
  %1 = load ptr, ptr %__rhs.addr, align 8
  call void @_ZNKSt7__cxx1112basic_stringIcSt11char_traitsIcESaIcEE13get_allocatorEv(ptr sret(%"class.std::allocator.0") align 1 %ref.tmp1, ptr noundef nonnull align 8 dereferenceable(32) %1) #13
  call void @_ZN9__gnu_cxx14__alloc_traitsISaIcEcE17_S_select_on_copyERKS1_(ptr sret(%"class.std::allocator.0") align 1 %ref.tmp, ptr noundef nonnull align 1 dereferenceable(1) %ref.tmp1)
  call void @_ZNSt7__cxx1112basic_stringIcSt11char_traitsIcESaIcEEC1ERKS3_(ptr noundef nonnull align 8 dereferenceable(32) %agg.result, ptr noundef nonnull align 1 dereferenceable(1) %ref.tmp) #13
  call void @_ZNSaIcED1Ev(ptr noundef nonnull align 1 dereferenceable(1) %ref.tmp) #13
  call void @_ZNSaIcED1Ev(ptr noundef nonnull align 1 dereferenceable(1) %ref.tmp1) #13
  %2 = load i64, ptr %__len, align 8
  %3 = load ptr, ptr %__rhs.addr, align 8
  %call2 = call noundef i64 @_ZNKSt7__cxx1112basic_stringIcSt11char_traitsIcESaIcEE4sizeEv(ptr noundef nonnull align 8 dereferenceable(32) %3) #13
  %add = add i64 %2, %call2
  call void @_ZNSt7__cxx1112basic_stringIcSt11char_traitsIcESaIcEE7reserveEm(ptr noundef nonnull align 8 dereferenceable(32) %agg.result, i64 noundef %add)
  %4 = load ptr, ptr %__lhs.addr, align 8
  %5 = load i64, ptr %__len, align 8
  %call3 = call noundef nonnull align 8 dereferenceable(32) ptr @_ZNSt7__cxx1112basic_stringIcSt11char_traitsIcESaIcEE6appendEPKcm(ptr noundef nonnull align 8 dereferenceable(32) %agg.result, ptr noundef %4, i64 noundef %5)
  %6 = load ptr, ptr %__rhs.addr, align 8
  %call4 = call noundef nonnull align 8 dereferenceable(32) ptr @_ZNSt7__cxx1112basic_stringIcSt11char_traitsIcESaIcEE6appendERKS4_(ptr noundef nonnull align 8 dereferenceable(32) %agg.result, ptr noundef nonnull align 8 dereferenceable(32) %6)
  store i1 true, ptr %nrvo, align 1
  %nrvo.val = load i1, ptr %nrvo, align 1
  br i1 %nrvo.val, label %nrvo.skipdtor, label %nrvo.unused

nrvo.unused:                                      ; preds = %entry
  call void @_ZNSt7__cxx1112basic_stringIcSt11char_traitsIcESaIcEED1Ev(ptr noundef nonnull align 8 dereferenceable(32) %agg.result) #13
  br label %nrvo.skipdtor

nrvo.skipdtor:                                    ; preds = %nrvo.unused, %entry
  ret void
}

; Function Attrs: mustprogress nounwind uwtable
define linkonce_odr hidden ptr @_ZN4llvh5SMLoc14getFromPointerEPKc(ptr noundef %Ptr) #0 comdat align 2 {
entry:
  %retval = alloca %"class.llvh::SMLoc", align 8
  %Ptr.addr = alloca ptr, align 8
  store ptr %Ptr, ptr %Ptr.addr, align 8
  call void @_ZN4llvh5SMLocC2Ev(ptr noundef nonnull align 8 dereferenceable(8) %retval) #13
  %0 = load ptr, ptr %Ptr.addr, align 8
  %Ptr1 = getelementptr inbounds %"class.llvh::SMLoc", ptr %retval, i32 0, i32 0
  store ptr %0, ptr %Ptr1, align 8
  %coerce.dive = getelementptr inbounds %"class.llvh::SMLoc", ptr %retval, i32 0, i32 0
  %1 = load ptr, ptr %coerce.dive, align 8
  ret ptr %1
}

; Function Attrs: mustprogress nounwind uwtable
define hidden noundef zeroext i1 @_ZN4llvh16FileCheckPattern15AddRegExToRegExENS_9StringRefERjRNS_9SourceMgrE(ptr noundef nonnull align 8 dereferenceable(136) %this, ptr %RS.coerce0, i64 %RS.coerce1, ptr noundef nonnull align 4 dereferenceable(4) %CurParen, ptr noundef nonnull align 8 dereferenceable(120) %SM) #0 align 2 {
entry:
  %this.addr.i = alloca ptr, align 8
  %retval = alloca i1, align 1
  %RS = alloca %"class.llvh::StringRef", align 8
  %this.addr = alloca ptr, align 8
  %CurParen.addr = alloca ptr, align 8
  %SM.addr = alloca ptr, align 8
  %R = alloca %"class.llvh::Regex", align 8
  %agg.tmp = alloca %"class.llvh::StringRef", align 8
  %Error = alloca %"class.std::__cxx11::basic_string", align 8
  %agg.tmp2 = alloca %"class.llvh::SMLoc", align 8
  %ref.tmp = alloca %"class.llvh::Twine", align 8
  %ref.tmp5 = alloca %"class.std::__cxx11::basic_string", align 8
  %agg.tmp6 = alloca %"class.llvh::ArrayRef", align 8
  %agg.tmp7 = alloca %"class.llvh::ArrayRef.24", align 8
  %cleanup.dest.slot = alloca i32, align 4
  %ref.tmp9 = alloca %"class.std::__cxx11::basic_string", align 8
  %0 = getelementptr inbounds { ptr, i64 }, ptr %RS, i32 0, i32 0
  store ptr %RS.coerce0, ptr %0, align 8
  %1 = getelementptr inbounds { ptr, i64 }, ptr %RS, i32 0, i32 1
  store i64 %RS.coerce1, ptr %1, align 8
  store ptr %this, ptr %this.addr, align 8
  store ptr %CurParen, ptr %CurParen.addr, align 8
  store ptr %SM, ptr %SM.addr, align 8
  %this1 = load ptr, ptr %this.addr, align 8
  call void @llvm.memcpy.p0.p0.i64(ptr align 8 %agg.tmp, ptr align 8 %RS, i64 16, i1 false)
  %2 = getelementptr inbounds { ptr, i64 }, ptr %agg.tmp, i32 0, i32 0
  %3 = load ptr, ptr %2, align 8
  %4 = getelementptr inbounds { ptr, i64 }, ptr %agg.tmp, i32 0, i32 1
  %5 = load i64, ptr %4, align 8
  call void @_ZN4llvh5RegexC1ENS_9StringRefEj(ptr noundef nonnull align 8 dereferenceable(12) %R, ptr %3, i64 %5, i32 noundef 0)
  call void @_ZNSt7__cxx1112basic_stringIcSt11char_traitsIcESaIcEEC1Ev(ptr noundef nonnull align 8 dereferenceable(32) %Error) #13
  %call = call noundef zeroext i1 @_ZNK4llvh5Regex7isValidERNSt7__cxx1112basic_stringIcSt11char_traitsIcESaIcEEE(ptr noundef nonnull align 8 dereferenceable(12) %R, ptr noundef nonnull align 8 dereferenceable(32) %Error)
  br i1 %call, label %if.end, label %if.then

if.then:                                          ; preds = %entry
  %6 = load ptr, ptr %SM.addr, align 8
  store ptr %RS, ptr %this.addr.i, align 8
  %this1.i = load ptr, ptr %this.addr.i, align 8
  %7 = load ptr, ptr %this1.i, align 8
  %call4 = call ptr @_ZN4llvh5SMLoc14getFromPointerEPKc(ptr noundef %7)
  %coerce.dive = getelementptr inbounds %"class.llvh::SMLoc", ptr %agg.tmp2, i32 0, i32 0
  store ptr %call4, ptr %coerce.dive, align 8
  call void @_ZStplIcSt11char_traitsIcESaIcEENSt7__cxx1112basic_stringIT_T0_T1_EEPKS5_RKS8_(ptr sret(%"class.std::__cxx11::basic_string") align 8 %ref.tmp5, ptr noundef @.str.14, ptr noundef nonnull align 8 dereferenceable(32) %Error)
  call void @_ZN4llvh5TwineC2ERKNSt7__cxx1112basic_stringIcSt11char_traitsIcESaIcEEE(ptr noundef nonnull align 8 dereferenceable(18) %ref.tmp, ptr noundef nonnull align 8 dereferenceable(32) %ref.tmp5)
  call void @_ZN4llvh8ArrayRefINS_7SMRangeEEC2ENS_8NoneTypeE(ptr noundef nonnull align 8 dereferenceable(16) %agg.tmp6, i32 noundef 1)
  call void @_ZN4llvh8ArrayRefINS_7SMFixItEEC2ENS_8NoneTypeE(ptr noundef nonnull align 8 dereferenceable(16) %agg.tmp7, i32 noundef 1)
  %coerce.dive8 = getelementptr inbounds %"class.llvh::SMLoc", ptr %agg.tmp2, i32 0, i32 0
  %8 = load ptr, ptr %coerce.dive8, align 8
  %9 = getelementptr inbounds { ptr, i64 }, ptr %agg.tmp6, i32 0, i32 0
  %10 = load ptr, ptr %9, align 8
  %11 = getelementptr inbounds { ptr, i64 }, ptr %agg.tmp6, i32 0, i32 1
  %12 = load i64, ptr %11, align 8
  call void @_ZNK4llvh9SourceMgr12PrintMessageENS_5SMLocENS0_8DiagKindERKNS_5TwineENS_8ArrayRefINS_7SMRangeEEENS6_INS_7SMFixItEEEb(ptr noundef nonnull align 8 dereferenceable(120) %6, ptr %8, i32 noundef 0, ptr noundef nonnull align 8 dereferenceable(18) %ref.tmp, ptr %10, i64 %12, ptr noundef byval(%"class.llvh::ArrayRef.24") align 8 %agg.tmp7, i1 noundef zeroext true)
  call void @_ZNSt7__cxx1112basic_stringIcSt11char_traitsIcESaIcEED1Ev(ptr noundef nonnull align 8 dereferenceable(32) %ref.tmp5) #13
  store i1 true, ptr %retval, align 1
  store i32 1, ptr %cleanup.dest.slot, align 4
  br label %cleanup

if.end:                                           ; preds = %entry
  call void @_ZNK4llvh9StringRef3strB5cxx11Ev(ptr sret(%"class.std::__cxx11::basic_string") align 8 %ref.tmp9, ptr noundef nonnull align 8 dereferenceable(16) %RS)
  %RegExStr = getelementptr inbounds %"class.llvh::FileCheckPattern", ptr %this1, i32 0, i32 2
  %call10 = call noundef nonnull align 8 dereferenceable(32) ptr @_ZNSt7__cxx1112basic_stringIcSt11char_traitsIcESaIcEEpLERKS4_(ptr noundef nonnull align 8 dereferenceable(32) %RegExStr, ptr noundef nonnull align 8 dereferenceable(32) %ref.tmp9)
  call void @_ZNSt7__cxx1112basic_stringIcSt11char_traitsIcESaIcEED1Ev(ptr noundef nonnull align 8 dereferenceable(32) %ref.tmp9) #13
  %call11 = call noundef i32 @_ZNK4llvh5Regex13getNumMatchesEv(ptr noundef nonnull align 8 dereferenceable(12) %R)
  %13 = load ptr, ptr %CurParen.addr, align 8
  %14 = load i32, ptr %13, align 4
  %add = add i32 %14, %call11
  store i32 %add, ptr %13, align 4
  store i1 false, ptr %retval, align 1
  store i32 1, ptr %cleanup.dest.slot, align 4
  br label %cleanup

cleanup:                                          ; preds = %if.end, %if.then
  call void @_ZNSt7__cxx1112basic_stringIcSt11char_traitsIcESaIcEED1Ev(ptr noundef nonnull align 8 dereferenceable(32) %Error) #13
  call void @_ZN4llvh5RegexD1Ev(ptr noundef nonnull align 8 dereferenceable(12) %R) #13
  %15 = load i1, ptr %retval, align 1
  ret i1 %15
}