; Function Attrs: mustprogress nounwind uwtable
define hidden noundef zeroext i1 @_ZN4llvh16FileCheckPattern15AddRegExToRegExENS_9StringRefERjRNS_9SourceMgrE(ptr noundef nonnull align 8 dereferenceable(136) %this, ptr %RS.coerce0, i64 %RS.coerce1, ptr nocapture noundef nonnull align 4 dereferenceable(4) %CurParen, ptr noundef nonnull align 8 dereferenceable(120) %SM) local_unnamed_addr #0 align 2 {
entry:
  %ref.tmp.i1 = alloca %"class.std::allocator.0", align 1
  %ref.tmp.i = alloca %"class.std::allocator.0", align 1
  %ref.tmp1.i = alloca %"class.std::allocator.0", align 1
  %R = alloca %"class.llvh::Regex", align 8
  %Error = alloca %"class.std::__cxx11::basic_string", align 8
  %ref.tmp = alloca %"class.llvh::Twine", align 8
  %ref.tmp5 = alloca %"class.std::__cxx11::basic_string", align 8
  %agg.tmp7 = alloca %"class.llvh::ArrayRef.24", align 8
  %ref.tmp9 = alloca %"class.std::__cxx11::basic_string", align 8
  call void @_ZN4llvh5RegexC1ENS_9StringRefEj(ptr noundef nonnull align 8 dereferenceable(12) %R, ptr %RS.coerce0, i64 %RS.coerce1, i32 noundef 0) #18
  call void @_ZNSt7__cxx1112basic_stringIcSt11char_traitsIcESaIcEEC1Ev(ptr noundef nonnull align 8 dereferenceable(32) %Error) #18
  %call = call noundef zeroext i1 @_ZNK4llvh5Regex7isValidERNSt7__cxx1112basic_stringIcSt11char_traitsIcESaIcEEE(ptr noundef nonnull align 8 dereferenceable(12) %R, ptr noundef nonnull align 8 dereferenceable(32) %Error) #18
  br i1 %call, label %if.end, label %if.then

if.then:                                          ; preds = %entry
  call void @llvm.lifetime.start.p0(i64 1, ptr nonnull %ref.tmp.i)
  call void @llvm.lifetime.start.p0(i64 1, ptr nonnull %ref.tmp1.i)
  call void @_ZNKSt7__cxx1112basic_stringIcSt11char_traitsIcESaIcEE13get_allocatorEv(ptr nonnull sret(%"class.std::allocator.0") align 1 %ref.tmp1.i, ptr noundef nonnull align 8 dereferenceable(32) %Error) #18, !noalias !25
  call void @_ZNSaIcEC1ERKS_(ptr noundef nonnull align 1 dereferenceable(1) %ref.tmp.i, ptr noundef nonnull align 1 dereferenceable(1) %ref.tmp1.i) #18, !noalias !25
  call void @_ZNSt7__cxx1112basic_stringIcSt11char_traitsIcESaIcEEC1ERKS3_(ptr noundef nonnull align 8 dereferenceable(32) %ref.tmp5, ptr noundef nonnull align 1 dereferenceable(1) %ref.tmp.i) #18
  call void @_ZNSaIcED1Ev(ptr noundef nonnull align 1 dereferenceable(1) %ref.tmp.i) #18
  call void @_ZNSaIcED1Ev(ptr noundef nonnull align 1 dereferenceable(1) %ref.tmp1.i) #18
  %call2.i = call noundef i64 @_ZNKSt7__cxx1112basic_stringIcSt11char_traitsIcESaIcEE4sizeEv(ptr noundef nonnull align 8 dereferenceable(32) %Error) #18
  %add.i = add i64 %call2.i, 15
  call void @_ZNSt7__cxx1112basic_stringIcSt11char_traitsIcESaIcEE7reserveEm(ptr noundef nonnull align 8 dereferenceable(32) %ref.tmp5, i64 noundef %add.i) #18
  %call3.i = call noundef nonnull align 8 dereferenceable(32) ptr @_ZNSt7__cxx1112basic_stringIcSt11char_traitsIcESaIcEE6appendEPKcm(ptr noundef nonnull align 8 dereferenceable(32) %ref.tmp5, ptr noundef nonnull @.str.14, i64 noundef 15) #18
  %call4.i = call noundef nonnull align 8 dereferenceable(32) ptr @_ZNSt7__cxx1112basic_stringIcSt11char_traitsIcESaIcEE6appendERKS4_(ptr noundef nonnull align 8 dereferenceable(32) %ref.tmp5, ptr noundef nonnull align 8 dereferenceable(32) %Error) #18
  call void @llvm.lifetime.end.p0(i64 1, ptr nonnull %ref.tmp.i)
  call void @llvm.lifetime.end.p0(i64 1, ptr nonnull %ref.tmp1.i)
  %LHSKind.i = getelementptr inbounds i8, ptr %ref.tmp, i64 16
  store i8 4, ptr %LHSKind.i, align 8
  %RHSKind.i = getelementptr inbounds i8, ptr %ref.tmp, i64 17
  store i8 1, ptr %RHSKind.i, align 1
  store ptr %ref.tmp5, ptr %ref.tmp, align 8
  call void @llvm.memset.p0.i64(ptr noundef nonnull align 8 dereferenceable(16) %agg.tmp7, i8 0, i64 16, i1 false)
  call void @_ZNK4llvh9SourceMgr12PrintMessageENS_5SMLocENS0_8DiagKindERKNS_5TwineENS_8ArrayRefINS_7SMRangeEEENS6_INS_7SMFixItEEEb(ptr noundef nonnull align 8 dereferenceable(120) %SM, ptr %RS.coerce0, i32 noundef 0, ptr noundef nonnull align 8 dereferenceable(18) %ref.tmp, ptr null, i64 0, ptr noundef nonnull byval(%"class.llvh::ArrayRef.24") align 8 %agg.tmp7, i1 noundef zeroext true) #18
  call void @_ZNSt7__cxx1112basic_stringIcSt11char_traitsIcESaIcEED1Ev(ptr noundef nonnull align 8 dereferenceable(32) %ref.tmp5) #18
  br label %cleanup

if.end:                                           ; preds = %entry
  call void @llvm.lifetime.start.p0(i64 1, ptr nonnull %ref.tmp.i1)
  %tobool.not.i = icmp eq ptr %RS.coerce0, null
  br i1 %tobool.not.i, label %if.then.i, label %if.end.i

if.then.i:                                        ; preds = %if.end
  call void @_ZNSt7__cxx1112basic_stringIcSt11char_traitsIcESaIcEEC1Ev(ptr noundef nonnull align 8 dereferenceable(32) %ref.tmp9) #18
  br label %_ZNK4llvh9StringRef3strB5cxx11Ev.exit

if.end.i:                                         ; preds = %if.end
  call void @_ZNSaIcEC1Ev(ptr noundef nonnull align 1 dereferenceable(1) %ref.tmp.i1) #18, !noalias !28
  call void @_ZNSt7__cxx1112basic_stringIcSt11char_traitsIcESaIcEEC1EPKcmRKS3_(ptr noundef nonnull align 8 dereferenceable(32) %ref.tmp9, ptr noundef nonnull %RS.coerce0, i64 noundef %RS.coerce1, ptr noundef nonnull align 1 dereferenceable(1) %ref.tmp.i1) #18
  call void @_ZNSaIcED1Ev(ptr noundef nonnull align 1 dereferenceable(1) %ref.tmp.i1) #18
  br label %_ZNK4llvh9StringRef3strB5cxx11Ev.exit

_ZNK4llvh9StringRef3strB5cxx11Ev.exit:            ; preds = %if.then.i, %if.end.i
  call void @llvm.lifetime.end.p0(i64 1, ptr nonnull %ref.tmp.i1)
  %RegExStr = getelementptr inbounds i8, ptr %this, i64 24
  %call10 = call noundef nonnull align 8 dereferenceable(32) ptr @_ZNSt7__cxx1112basic_stringIcSt11char_traitsIcESaIcEEpLERKS4_(ptr noundef nonnull align 8 dereferenceable(32) %RegExStr, ptr noundef nonnull align 8 dereferenceable(32) %ref.tmp9) #18
  call void @_ZNSt7__cxx1112basic_stringIcSt11char_traitsIcESaIcEED1Ev(ptr noundef nonnull align 8 dereferenceable(32) %ref.tmp9) #18
  %call11 = call noundef i32 @_ZNK4llvh5Regex13getNumMatchesEv(ptr noundef nonnull align 8 dereferenceable(12) %R) #18
  %0 = load i32, ptr %CurParen, align 4
  %add = add i32 %0, %call11
  store i32 %add, ptr %CurParen, align 4
  br label %cleanup

cleanup:                                          ; preds = %_ZNK4llvh9StringRef3strB5cxx11Ev.exit, %if.then
  %retval.0 = xor i1 %call, true
  call void @_ZNSt7__cxx1112basic_stringIcSt11char_traitsIcESaIcEED1Ev(ptr noundef nonnull align 8 dereferenceable(32) %Error) #18
  call void @_ZN4llvh5RegexD1Ev(ptr noundef nonnull align 8 dereferenceable(12) %R) #18
  ret i1 %retval.0
}